target datalayout = "e-m:e-p270:32:32-p271:32:32-p272:64:64-i64:64-i128:128-f80:128-n8:16:32:64-S128"
target triple = "x86_64-pc-linux-gnu"

@color_filter_list = internal global ptr null, align 8
@filters_enabled = internal global i8 1, align 1

; Function Attrs: nounwind null_pointer_is_valid sspstrong uwtable
define zeroext i1 @color_filters_used() #7 {
  %1 = load ptr, ptr @color_filter_list, align 8
  %2 = icmp ne ptr %1, null
  br i1 %2, label %3, label %6

3:                                                ; preds = %0
  %4 = load i8, ptr @filters_enabled, align 1, !range !6, !noundef !7
  %5 = trunc i8 %4 to i1
  br label %6

6:                                                ; preds = %3, %0
  %7 = phi i1 [ false, %0 ], [ %5, %3 ]
  ret i1 %7
}

; Function Attrs: null_pointer_is_valid sspstrong uwtable
define void @color_filters_prime_edt(ptr noundef %0) #0 {
  %2 = alloca ptr, align 8
  store ptr %0, ptr %2, align 8
  %3 = call zeroext i1 @color_filters_used()
  br i1 %3, label %4, label %7

4:                                                ; preds = %1
  %5 = load ptr, ptr @color_filter_list, align 8
  %6 = load ptr, ptr %2, align 8
  call void @g_slist_foreach(ptr noundef %5, ptr noundef @prime_edt, ptr noundef %6)
  br label %7

7:                                                ; preds = %4, %1
  ret void
}