; Function Attrs: null_pointer_is_valid sspstrong uwtable
define void @color_filters_prime_edt(ptr noundef %0) local_unnamed_addr #0 {
  %2 = load ptr, ptr @color_filter_list, align 8
  %.not = icmp eq ptr %2, null
  br i1 %.not, label %4, label %3

3:                                                ; preds = %1
  tail call void @g_slist_foreach(ptr noundef nonnull %2, ptr noundef nonnull @prime_edt, ptr noundef %0)
  br label %4

4:                                                ; preds = %3, %1
  ret void
}